; ModuleID = '31/807.c'
source_filename = "31/807.c"
target datalayout = "e-m:e-p270:32:32-p271:32:32-p272:64:64-i64:64-f80:128-n8:16:32:64-S128"
target triple = "x86_64-pc-linux-gnu"

%struct.student = type { [20 x i8], [20 x i8], i8, i32, double, [20 x i8], %struct.student*, %struct.student* }

@.str = private unnamed_addr constant [3 x i8] c"%s\00", align 1
@.str.1 = private unnamed_addr constant [16 x i8] c"%s %c %d %lf %s\00", align 1
@.str.2 = private unnamed_addr constant [19 x i8] c"%s %s %c %d %d %s\0A\00", align 1
@.str.3 = private unnamed_addr constant [22 x i8] c"%s %s %c %d %.1lf %s\0A\00", align 1

; Function Attrs: noinline nounwind uwtable
define dso_local i32 @main() #0 {
  %1 = alloca i32, align 4
  %2 = alloca %struct.student*, align 8
  %3 = alloca %struct.student*, align 8
  %4 = alloca %struct.student*, align 8
  %5 = alloca %struct.student*, align 8
  store i32 0, i32* %1, align 4
  %6 = call noalias i8* @malloc(i64 96) #3
  %7 = bitcast i8* %6 to %struct.student*
  store %struct.student* %7, %struct.student** %5, align 8
  %8 = load %struct.student*, %struct.student** %5, align 8
  %9 = getelementptr inbounds %struct.student, %struct.student* %8, i32 0, i32 7
  store %struct.student* null, %struct.student** %9, align 8
  %10 = load %struct.student*, %struct.student** %5, align 8
  %11 = getelementptr inbounds %struct.student, %struct.student* %10, i32 0, i32 6
  store %struct.student* null, %struct.student** %11, align 8
  %12 = load %struct.student*, %struct.student** %5, align 8
  store %struct.student* %12, %struct.student** %4, align 8
  br label %13

13:                                               ; preds = %47, %0
  %14 = call noalias i8* @malloc(i64 96) #3
  %15 = bitcast i8* %14 to %struct.student*
  store %struct.student* %15, %struct.student** %3, align 8
  %16 = load %struct.student*, %struct.student** %3, align 8
  %17 = load %struct.student*, %struct.student** %4, align 8
  %18 = getelementptr inbounds %struct.student, %struct.student* %17, i32 0, i32 6
  store %struct.student* %16, %struct.student** %18, align 8
  %19 = load %struct.student*, %struct.student** %4, align 8
  %20 = load %struct.student*, %struct.student** %3, align 8
  %21 = getelementptr inbounds %struct.student, %struct.student* %20, i32 0, i32 7
  store %struct.student* %19, %struct.student** %21, align 8
  %22 = load %struct.student*, %struct.student** %3, align 8
  %23 = getelementptr inbounds %struct.student, %struct.student* %22, i32 0, i32 0
  %24 = getelementptr inbounds [20 x i8], [20 x i8]* %23, i64 0, i64 0
  %25 = call i32 (i8*, ...) @__isoc99_scanf(i8* getelementptr inbounds ([3 x i8], [3 x i8]* @.str, i64 0, i64 0), i8* %24)
  %26 = load %struct.student*, %struct.student** %3, align 8
  %27 = getelementptr inbounds %struct.student, %struct.student* %26, i32 0, i32 0
  %28 = getelementptr inbounds [20 x i8], [20 x i8]* %27, i64 0, i64 0
  %29 = load i8, i8* %28, align 8
  %30 = sext i8 %29 to i32
  %31 = icmp eq i32 %30, 101
  br i1 %31, label %32, label %47

32:                                               ; preds = %13
  %33 = load %struct.student*, %struct.student** %3, align 8
  %34 = getelementptr inbounds %struct.student, %struct.student* %33, i32 0, i32 0
  %35 = getelementptr inbounds [20 x i8], [20 x i8]* %34, i64 0, i64 1
  %36 = load i8, i8* %35, align 1
  %37 = sext i8 %36 to i32
  %38 = icmp eq i32 %37, 110
  br i1 %38, label %39, label %47

39:                                               ; preds = %32
  %40 = load %struct.student*, %struct.student** %3, align 8
  %41 = getelementptr inbounds %struct.student, %struct.student* %40, i32 0, i32 0
  %42 = getelementptr inbounds [20 x i8], [20 x i8]* %41, i64 0, i64 2
  %43 = load i8, i8* %42, align 2
  %44 = sext i8 %43 to i32
  %45 = icmp eq i32 %44, 100
  br i1 %45, label %46, label %47

46:                                               ; preds = %39
  br label %62

47:                                               ; preds = %39, %32, %13
  %48 = load %struct.student*, %struct.student** %3, align 8
  %49 = getelementptr inbounds %struct.student, %struct.student* %48, i32 0, i32 1
  %50 = getelementptr inbounds [20 x i8], [20 x i8]* %49, i64 0, i64 0
  %51 = load %struct.student*, %struct.student** %3, align 8
  %52 = getelementptr inbounds %struct.student, %struct.student* %51, i32 0, i32 2
  %53 = load %struct.student*, %struct.student** %3, align 8
  %54 = getelementptr inbounds %struct.student, %struct.student* %53, i32 0, i32 3
  %55 = load %struct.student*, %struct.student** %3, align 8
  %56 = getelementptr inbounds %struct.student, %struct.student* %55, i32 0, i32 4
  %57 = load %struct.student*, %struct.student** %3, align 8
  %58 = getelementptr inbounds %struct.student, %struct.student* %57, i32 0, i32 5
  %59 = getelementptr inbounds [20 x i8], [20 x i8]* %58, i64 0, i64 0
  %60 = call i32 (i8*, ...) @__isoc99_scanf(i8* getelementptr inbounds ([16 x i8], [16 x i8]* @.str.1, i64 0, i64 0), i8* %50, i8* %52, i32* %54, double* %56, i8* %59)
  %61 = load %struct.student*, %struct.student** %3, align 8
  store %struct.student* %61, %struct.student** %4, align 8
  br label %13

62:                                               ; preds = %46
  %63 = load %struct.student*, %struct.student** %4, align 8
  %64 = getelementptr inbounds %struct.student, %struct.student* %63, i32 0, i32 6
  store %struct.student* null, %struct.student** %64, align 8
  %65 = load %struct.student*, %struct.student** %3, align 8
  %66 = bitcast %struct.student* %65 to i8*
  call void @free(i8* %66) #3
  %67 = load %struct.student*, %struct.student** %4, align 8
  store %struct.student* %67, %struct.student** %2, align 8
  br label %68

68:                                               ; preds = %126, %62
  %69 = load %struct.student*, %struct.student** %2, align 8
  %70 = getelementptr inbounds %struct.student, %struct.student* %69, i32 0, i32 7
  %71 = load %struct.student*, %struct.student** %70, align 8
  %72 = icmp ne %struct.student* %71, null
  br i1 %72, label %73, label %130

73:                                               ; preds = %68
  %74 = load %struct.student*, %struct.student** %2, align 8
  %75 = getelementptr inbounds %struct.student, %struct.student* %74, i32 0, i32 4
  %76 = load double, double* %75, align 8
  %77 = load %struct.student*, %struct.student** %2, align 8
  %78 = getelementptr inbounds %struct.student, %struct.student* %77, i32 0, i32 4
  %79 = load double, double* %78, align 8
  %80 = fptosi double %79 to i32
  %81 = sitofp i32 %80 to double
  %82 = fcmp oeq double %76, %81
  br i1 %82, label %83, label %105

83:                                               ; preds = %73
  %84 = load %struct.student*, %struct.student** %2, align 8
  %85 = getelementptr inbounds %struct.student, %struct.student* %84, i32 0, i32 0
  %86 = getelementptr inbounds [20 x i8], [20 x i8]* %85, i64 0, i64 0
  %87 = load %struct.student*, %struct.student** %2, align 8
  %88 = getelementptr inbounds %struct.student, %struct.student* %87, i32 0, i32 1
  %89 = getelementptr inbounds [20 x i8], [20 x i8]* %88, i64 0, i64 0
  %90 = load %struct.student*, %struct.student** %2, align 8
  %91 = getelementptr inbounds %struct.student, %struct.student* %90, i32 0, i32 2
  %92 = load i8, i8* %91, align 8
  %93 = sext i8 %92 to i32
  %94 = load %struct.student*, %struct.student** %2, align 8
  %95 = getelementptr inbounds %struct.student, %struct.student* %94, i32 0, i32 3
  %96 = load i32, i32* %95, align 4
  %97 = load %struct.student*, %struct.student** %2, align 8
  %98 = getelementptr inbounds %struct.student, %struct.student* %97, i32 0, i32 4
  %99 = load double, double* %98, align 8
  %100 = fptosi double %99 to i32
  %101 = load %struct.student*, %struct.student** %2, align 8
  %102 = getelementptr inbounds %struct.student, %struct.student* %101, i32 0, i32 5
  %103 = getelementptr inbounds [20 x i8], [20 x i8]* %102, i64 0, i64 0
  %104 = call i32 (i8*, ...) @printf(i8* getelementptr inbounds ([19 x i8], [19 x i8]* @.str.2, i64 0, i64 0), i8* %86, i8* %89, i32 %93, i32 %96, i32 %100, i8* %103)
  br label %126

105:                                              ; preds = %73
  %106 = load %struct.student*, %struct.student** %2, align 8
  %107 = getelementptr inbounds %struct.student, %struct.student* %106, i32 0, i32 0
  %108 = getelementptr inbounds [20 x i8], [20 x i8]* %107, i64 0, i64 0
  %109 = load %struct.student*, %struct.student** %2, align 8
  %110 = getelementptr inbounds %struct.student, %struct.student* %109, i32 0, i32 1
  %111 = getelementptr inbounds [20 x i8], [20 x i8]* %110, i64 0, i64 0
  %112 = load %struct.student*, %struct.student** %2, align 8
  %113 = getelementptr inbounds %struct.student, %struct.student* %112, i32 0, i32 2
  %114 = load i8, i8* %113, align 8
  %115 = sext i8 %114 to i32
  %116 = load %struct.student*, %struct.student** %2, align 8
  %117 = getelementptr inbounds %struct.student, %struct.student* %116, i32 0, i32 3
  %118 = load i32, i32* %117, align 4
  %119 = load %struct.student*, %struct.student** %2, align 8
  %120 = getelementptr inbounds %struct.student, %struct.student* %119, i32 0, i32 4
  %121 = load double, double* %120, align 8
  %122 = load %struct.student*, %struct.student** %2, align 8
  %123 = getelementptr inbounds %struct.student, %struct.student* %122, i32 0, i32 5
  %124 = getelementptr inbounds [20 x i8], [20 x i8]* %123, i64 0, i64 0
  %125 = call i32 (i8*, ...) @printf(i8* getelementptr inbounds ([22 x i8], [22 x i8]* @.str.3, i64 0, i64 0), i8* %108, i8* %111, i32 %115, i32 %118, double %121, i8* %124)
  br label %126

126:                                              ; preds = %105, %83
  %127 = load %struct.student*, %struct.student** %2, align 8
  %128 = getelementptr inbounds %struct.student, %struct.student* %127, i32 0, i32 7
  %129 = load %struct.student*, %struct.student** %128, align 8
  store %struct.student* %129, %struct.student** %2, align 8
  br label %68

130:                                              ; preds = %68
  %131 = load %struct.student*, %struct.student** %4, align 8
  store %struct.student* %131, %struct.student** %3, align 8
  br label %132

132:                                              ; preds = %137, %130
  %133 = load %struct.student*, %struct.student** %3, align 8
  %134 = getelementptr inbounds %struct.student, %struct.student* %133, i32 0, i32 7
  %135 = load %struct.student*, %struct.student** %134, align 8
  %136 = icmp ne %struct.student* %135, null
  br i1 %136, label %137, label %144

137:                                              ; preds = %132
  %138 = load %struct.student*, %struct.student** %3, align 8
  store %struct.student* %138, %struct.student** %4, align 8
  %139 = load %struct.student*, %struct.student** %4, align 8
  %140 = getelementptr inbounds %struct.student, %struct.student* %139, i32 0, i32 7
  %141 = load %struct.student*, %struct.student** %140, align 8
  store %struct.student* %141, %struct.student** %3, align 8
  %142 = load %struct.student*, %struct.student** %4, align 8
  %143 = bitcast %struct.student* %142 to i8*
  call void @free(i8* %143) #3
  br label %132

144:                                              ; preds = %132
  %145 = load %struct.student*, %struct.student** %3, align 8
  %146 = bitcast %struct.student* %145 to i8*
  call void @free(i8* %146) #3
  %147 = load i32, i32* %1, align 4
  ret i32 %147
}

; Function Attrs: nounwind
declare dso_local noalias i8* @malloc(i64) #1

declare dso_local i32 @__isoc99_scanf(i8*, ...) #2

; Function Attrs: nounwind
declare dso_local void @free(i8*) #1

declare dso_local i32 @printf(i8*, ...) #2


!llvm.module.flags = !{!0}
!llvm.ident = !{!1}

!0 = !{i32 1, !"wchar_size", i32 4}
!1 = !{!"clang version 10.0.0-4ubuntu1 "}
